; Function Attrs: mustprogress uwtable
define void @_ZNK6icu_7517RuleBasedCollator8getRulesE14UColRuleOptionRNS_13UnicodeStringE(ptr nocapture noundef nonnull readonly align 8 dereferenceable(272) %this, i32 noundef %delta, ptr noundef nonnull align 8 dereferenceable(64) %buffer) local_unnamed_addr #1 align 2 {
entry:
  %cmp = icmp eq i32 %delta, 0
  br i1 %cmp, label %if.then, label %if.end

if.then:                                          ; preds = %entry
  %tailoring = getelementptr inbounds i8, ptr %this, i64 24
  %0 = load ptr, ptr %tailoring, align 8
  %rules = getelementptr inbounds i8, ptr %0, i64 40
  %call = tail call noundef nonnull align 8 dereferenceable(64) ptr @_ZN6icu_7513UnicodeStringaSERKS0_(ptr noundef nonnull align 8 dereferenceable(64) %buffer, ptr noundef nonnull align 8 dereferenceable(64) %rules)
  br label %return

if.end:                                           ; preds = %entry
  %fUnion.i.i = getelementptr inbounds i8, ptr %buffer, i64 8
  %1 = load i16, ptr %fUnion.i.i, align 8
  %conv2.i3.i = and i16 %1, 1
  %tobool.not.i = icmp eq i16 %conv2.i3.i, 0
  %2 = and i16 %1, 30
  %storemerge.i = select i1 %tobool.not.i, i16 %2, i16 2
  store i16 %storemerge.i, ptr %fUnion.i.i, align 8
  tail call void @_ZN6icu_7515CollationLoader15appendRootRulesERNS_13UnicodeStringE(ptr noundef nonnull align 8 dereferenceable(64) %buffer)
  %tailoring3 = getelementptr inbounds i8, ptr %this, i64 24
  %3 = load ptr, ptr %tailoring3, align 8
  %rules4 = getelementptr inbounds i8, ptr %3, i64 40
  %fUnion.i.i.i = getelementptr inbounds i8, ptr %3, i64 48
  %4 = load i16, ptr %fUnion.i.i.i, align 8
  %cmp.i.i.i = icmp slt i16 %4, 0
  %5 = ashr i16 %4, 5
  %shr.i.i.i = sext i16 %5 to i32
  %fLength.i.i = getelementptr inbounds i8, ptr %3, i64 52
  %6 = load i32, ptr %fLength.i.i, align 4
  %cond.i.i = select i1 %cmp.i.i.i, i32 %6, i32 %shr.i.i.i
  %call2.i = tail call noundef nonnull align 8 dereferenceable(64) ptr @_ZN6icu_7513UnicodeString8doAppendERKS0_ii(ptr noundef nonnull align 8 dereferenceable(64) %buffer, ptr noundef nonnull align 8 dereferenceable(64) %rules4, i32 noundef 0, i32 noundef %cond.i.i)
  %call6 = tail call noundef ptr @_ZN6icu_7513UnicodeString19getTerminatedBufferEv(ptr noundef nonnull align 8 dereferenceable(64) %call2.i)
  br label %return

return:                                           ; preds = %if.end, %if.then
  ret void
}